target datalayout = "e-m:e-p270:32:32-p271:32:32-p272:64:64-i64:64-i128:128-f80:128-n8:16:32:64-S128"
target triple = "x86_64-pc-linux-gnu"

%struct.XRectangle = type { i16, i16, i16, i16 }

@awt_display = external global ptr, align 8

; Function Attrs: nounwind uwtable
define void @Java_sun_java2d_xr_XRBackendNative_XRSetClipNative(ptr noundef %0, ptr noundef %1, i64 noundef %2, i32 noundef %3, i32 noundef %4, i32 noundef %5, i32 noundef %6, ptr noundef %7, i8 noundef zeroext %8) #0 {
  %10 = alloca ptr, align 8
  %11 = alloca ptr, align 8
  %12 = alloca i64, align 8
  %13 = alloca i32, align 4
  %14 = alloca i32, align 4
  %15 = alloca i32, align 4
  %16 = alloca i32, align 4
  %17 = alloca ptr, align 8
  %18 = alloca i8, align 1
  %19 = alloca i32, align 4
  %20 = alloca [256 x %struct.XRectangle], align 16
  %21 = alloca ptr, align 8
  store ptr %0, ptr %10, align 8
  store ptr %1, ptr %11, align 8
  store i64 %2, ptr %12, align 8
  store i32 %3, ptr %13, align 4
  store i32 %4, ptr %14, align 4
  store i32 %5, ptr %15, align 4
  store i32 %6, ptr %16, align 4
  store ptr %7, ptr %17, align 8
  store i8 %8, ptr %18, align 1
  %22 = getelementptr inbounds [256 x %struct.XRectangle], ptr %20, i64 0, i64 0
  store ptr %22, ptr %21, align 8
  %23 = load ptr, ptr %10, align 8
  %24 = load i32, ptr %13, align 4
  %25 = load i32, ptr %14, align 4
  %26 = load i32, ptr %15, align 4
  %27 = load i32, ptr %16, align 4
  %28 = load ptr, ptr %17, align 8
  %29 = call i32 @RegionToYXBandedRectangles(ptr noundef %23, i32 noundef %24, i32 noundef %25, i32 noundef %26, i32 noundef %27, ptr noundef %28, ptr noundef %21, i32 noundef 256)
  store i32 %29, ptr %19, align 4
  %30 = load i8, ptr %18, align 1
  %31 = zext i8 %30 to i32
  %32 = icmp eq i32 %31, 1
  br i1 %32, label %33, label %44

33:                                               ; preds = %9
  %34 = load i64, ptr %12, align 8
  %35 = icmp ne i64 %34, 0
  br i1 %35, label %36, label %43

36:                                               ; preds = %33
  %37 = load ptr, ptr @awt_display, align 8
  %38 = load i64, ptr %12, align 8
  %39 = inttoptr i64 %38 to ptr
  %40 = load ptr, ptr %21, align 8
  %41 = load i32, ptr %19, align 4
  %42 = call i32 @XSetClipRectangles(ptr noundef %37, ptr noundef %39, i32 noundef 0, i32 noundef 0, ptr noundef %40, i32 noundef %41, i32 noundef 3)
  br label %43

43:                                               ; preds = %36, %33
  br label %49

44:                                               ; preds = %9
  %45 = load ptr, ptr @awt_display, align 8
  %46 = load i64, ptr %12, align 8
  %47 = load ptr, ptr %21, align 8
  %48 = load i32, ptr %19, align 4
  call void @XRenderSetPictureClipRectangles(ptr noundef %45, i64 noundef %46, i32 noundef 0, i32 noundef 0, ptr noundef %47, i32 noundef %48)
  br label %49

49:                                               ; preds = %44, %43
  %50 = load ptr, ptr %21, align 8
  %51 = getelementptr inbounds [256 x %struct.XRectangle], ptr %20, i64 0, i64 0
  %52 = icmp ne ptr %50, %51
  br i1 %52, label %53, label %55

53:                                               ; preds = %49
  %54 = load ptr, ptr %21, align 8
  call void @free(ptr noundef %54) #7
  br label %55

55:                                               ; preds = %53, %49
  ret void
}