; Function Attrs: nounwind uwtable
define void @Java_sun_java2d_xr_XRBackendNative_XRSetClipNative(ptr noundef %0, ptr nocapture noundef readnone %1, i64 noundef %2, i32 noundef %3, i32 noundef %4, i32 noundef %5, i32 noundef %6, ptr noundef %7, i8 noundef zeroext %8) local_unnamed_addr #0 {
  %10 = alloca [256 x %struct.XRectangle], align 16
  %11 = alloca ptr, align 8
  store ptr %10, ptr %11, align 8
  %12 = call i32 @RegionToYXBandedRectangles(ptr noundef %0, i32 noundef %3, i32 noundef %4, i32 noundef %5, i32 noundef %6, ptr noundef %7, ptr noundef nonnull %11, i32 noundef 256) #14
  %13 = icmp eq i8 %8, 1
  br i1 %13, label %14, label %20

14:                                               ; preds = %9
  %.not = icmp eq i64 %2, 0
  br i1 %.not, label %23, label %15

15:                                               ; preds = %14
  %16 = load ptr, ptr @awt_display, align 8
  %17 = inttoptr i64 %2 to ptr
  %18 = load ptr, ptr %11, align 8
  %19 = call i32 @XSetClipRectangles(ptr noundef %16, ptr noundef nonnull %17, i32 noundef 0, i32 noundef 0, ptr noundef %18, i32 noundef %12, i32 noundef 3) #14
  br label %23

20:                                               ; preds = %9
  %21 = load ptr, ptr @awt_display, align 8
  %22 = load ptr, ptr %11, align 8
  call void @XRenderSetPictureClipRectangles(ptr noundef %21, i64 noundef %2, i32 noundef 0, i32 noundef 0, ptr noundef %22, i32 noundef %12) #14
  br label %23

23:                                               ; preds = %14, %15, %20
  %24 = load ptr, ptr %11, align 8
  %.not12 = icmp eq ptr %24, %10
  br i1 %.not12, label %26, label %25

25:                                               ; preds = %23
  call void @free(ptr noundef %24) #14
  br label %26

26:                                               ; preds = %25, %23
  ret void
}